(dp0
S'METTS MARK'
p1
(dp2
S'to_messages'
p3
F807.0
sS'deferral_payments'
p4
Fnan
sS'expenses'
p5
F94299.0
sS'poi'
p6
I00
sS'long_term_incentive'
p7
Fnan
sS'email_address'
p8
S'mark.metts@enron.com'
p9
sS'from_poi_to_this_person'
p10
F38.0
sS'deferred_income'
p11
Fnan
sS'bonus'
p12
F600000.0
sS'poi_response'
p13
F0.02631578947368421
sS'restricted_stock_deferred'
p14
Fnan
sS'shared_receipt_with_poi'
p15
F702.0
sS'loan_advances'
p16
Fnan
sS'from_messages'
p17
F29.0
sS'other'
p18
F1740.0
sS'delta_response'
p19
F-37.0
sS'director_fees'
p20
Fnan
sS'take_home'
p21
F965788.0
sS'total_stock_value'
p22
F585062.0
sS'from_this_person_to_poi'
p23
F1.0
sS'restricted_stock'
p24
F585062.0
sS'salary'
p25
F365788.0
sS'percent_exercised'
p26
Fnan
sS'total_payments'
p27
F1061827.0
sS'exercised_stock_options'
p28
Fnan
sS'response_rate'
p29
F0.03593556381660471
ssS'BAXTER JOHN C'
p30
(dp31
g3
Fnan
sg4
F1295738.0
sg5
F11200.0
sg6
I00
sg7
F1586055.0
sg8
S'NaN'
p32
sg10
Fnan
sg11
F-1386055.0
sg12
F1200000.0
sg13
Fnan
sg14
Fnan
sg15
Fnan
sg16
Fnan
sg17
Fnan
sg18
F2660303.0
sg19
Fnan
sg20
Fnan
sg21
F1467102.0
sg22
F10623258.0
sg23
Fnan
sg24
F3942714.0
sg25
F267102.0
sg26
F0.6288601858299968
sg27
F5634343.0
sg28
F6680544.0
sg29
Fnan
ssS'ELLIOTT STEVEN'
p33
(dp34
g3
Fnan
sg4
Fnan
sg5
F78552.0
sg6
I00
sg7
Fnan
sg8
S'steven.elliott@enron.com'
p35
sg10
Fnan
sg11
F-400729.0
sg12
F350000.0
sg13
Fnan
sg14
Fnan
sg15
Fnan
sg16
Fnan
sg17
Fnan
sg18
F12961.0
sg19
Fnan
sg20
Fnan
sg21
F520941.0
sg22
F6678735.0
sg23
Fnan
sg24
F1788391.0
sg25
F170941.0
sg26
F0.7322260877246963
sg27
F211725.0
sg28
F4890344.0
sg29
Fnan
ssS'CORDES WILLIAM R'
p36
(dp37
g3
F764.0
sg4
Fnan
sg5
Fnan
sg6
I00
sg7
Fnan
sg8
S'bill.cordes@enron.com'
p38
sg10
F10.0
sg11
Fnan
sg12
Fnan
sg13
F0.0
sg14
Fnan
sg15
F58.0
sg16
Fnan
sg17
F12.0
sg18
Fnan
sg19
F-10.0
sg20
Fnan
sg21
Fnan
sg22
F1038185.0
sg23
F0.0
sg24
F386335.0
sg25
Fnan
sg26
F0.6278746080900803
sg27
Fnan
sg28
F651850.0
sg29
F0.015706806282722512
ssS'HANNON KEVIN P'
p39
(dp40
g3
F1045.0
sg4
Fnan
sg5
F34039.0
sg6
I01
sg7
F1617011.0
sg8
S'kevin.hannon@enron.com'
p41
sg10
F32.0
sg11
F-3117011.0
sg12
F1500000.0
sg13
F0.65625
sg14
Fnan
sg15
F1035.0
sg16
Fnan
sg17
F32.0
sg18
F11350.0
sg19
F-11.0
sg20
Fnan
sg21
F1743293.0
sg22
F6391065.0
sg23
F21.0
sg24
F853064.0
sg25
F243293.0
sg26
F0.8665224027607292
sg27
F288682.0
sg28
F5538001.0
sg29
F0.03062200956937799
ssS'MORDAUNT KRISTINA M'
p42
(dp43
g3
Fnan
sg4
Fnan
sg5
F35018.0
sg6
I00
sg7
Fnan
sg8
S'kristina.mordaunt@enron.com'
p44
sg10
Fnan
sg11
Fnan
sg12
F325000.0
sg13
Fnan
sg14
Fnan
sg15
Fnan
sg16
Fnan
sg17
Fnan
sg18
F1411.0
sg19
Fnan
sg20
Fnan
sg21
F592093.0
sg22
F208510.0
sg23
Fnan
sg24
F208510.0
sg25
F267093.0
sg26
Fnan
sg27
F628522.0
sg28
Fnan
sg29
Fnan
ssS'MEYER ROCKFORD G'
p45
(dp46
g3
F232.0
sg4
F1848227.0
sg5
Fnan
sg6
I00
sg7
Fnan
sg8
S'rockford.meyer@enron.com'
p47
sg10
F0.0
sg11
Fnan
sg12
Fnan
sg13
Fnan
sg14
Fnan
sg15
F22.0
sg16
Fnan
sg17
F28.0
sg18
Fnan
sg19
F0.0
sg20
Fnan
sg21
Fnan
sg22
F955873.0
sg23
F0.0
sg24
F462384.0
sg25
Fnan
sg26
F0.5162704668925684
sg27
F1848227.0
sg28
F493489.0
sg29
F0.1206896551724138
ssS'MCMAHON JEFFREY'
p48
(dp49
g3
F2355.0
sg4
Fnan
sg5
F137108.0
sg6
I00
sg7
F694862.0
sg8
S'jeffrey.mcmahon@enron.com'
p50
sg10
F58.0
sg11
Fnan
sg12
F2600000.0
sg13
F0.4482758620689655
sg14
Fnan
sg15
F2228.0
sg16
Fnan
sg17
F48.0
sg18
F297353.0
sg19
F-32.0
sg20
Fnan
sg21
F2970448.0
sg22
F1662855.0
sg23
F26.0
sg24
F558801.0
sg25
F370448.0
sg26
F0.6639508556067727
sg27
F4099771.0
sg28
F1104054.0
sg29
F0.02038216560509554
ssS'HORTON STANLEY C'
p51
(dp52
g3
F2350.0
sg4
F3131860.0
sg5
Fnan
sg6
I00
sg7
Fnan
sg8
S'stanley.horton@enron.com'
p53
sg10
F44.0
sg11
Fnan
sg12
Fnan
sg13
F0.3409090909090909
sg14
Fnan
sg15
F1074.0
sg16
Fnan
sg17
F1073.0
sg18
Fnan
sg19
F-29.0
sg20
Fnan
sg21
Fnan
sg22
F7256648.0
sg23
F15.0
sg24
F2046079.0
sg25
Fnan
sg26
F0.7180407538025821
sg27
F3131860.0
sg28
F5210569.0
sg29
F0.45659574468085107
ssS'PIPER GREGORY F'
p54
(dp55
g3
F1238.0
sg4
F1130036.0
sg5
F43057.0
sg6
I00
sg7
Fnan
sg8
S'greg.piper@enron.com'
p56
sg10
F61.0
sg11
F-33333.0
sg12
F400000.0
sg13
F0.7868852459016393
sg14
F-409554.0
sg15
F742.0
sg16
Fnan
sg17
F222.0
sg18
F778.0
sg19
F-13.0
sg20
Fnan
sg21
F597091.0
sg22
F880290.0
sg23
F48.0
sg24
F409554.0
sg25
F197091.0
sg26
F1.0
sg27
F1737629.0
sg28
F880290.0
sg29
F0.17932148626817448
ssS'HUMPHREY GENE E'
p57
(dp58
g3
F128.0
sg4
F2964506.0
sg5
F4994.0
sg6
I00
sg7
Fnan
sg8
S'gene.humphrey@enron.com'
p59
sg10
F10.0
sg11
Fnan
sg12
Fnan
sg13
F1.7
sg14
Fnan
sg15
F119.0
sg16
Fnan
sg17
F17.0
sg18
Fnan
sg19
F7.0
sg20
Fnan
sg21
Fnan
sg22
F2282768.0
sg23
F17.0
sg24
Fnan
sg25
F130724.0
sg26
F1.0
sg27
F3100224.0
sg28
F2282768.0
sg29
F0.1328125
ssS'UMANOFF ADAM S'
p60
(dp61
g3
F111.0
sg4
Fnan
sg5
F53122.0
sg6
I00
sg7
Fnan
sg8
S'adam.umanoff@enron.com'
p62
sg10
F12.0
sg11
Fnan
sg12
F788750.0
sg13
F0.0
sg14
Fnan
sg15
F41.0
sg16
Fnan
sg17
F18.0
sg18
Fnan
sg19
F-12.0
sg20
Fnan
sg21
F1077339.0
sg22
Fnan
sg23
F0.0
sg24
Fnan
sg25
F288589.0
sg26
Fnan
sg27
F1130461.0
sg28
Fnan
sg29
F0.16216216216216217
ssS'BLACHMAN JEREMY M'
p63
(dp64
g3
F2475.0
sg4
Fnan
sg5
F84208.0
sg6
I00
sg7
F831809.0
sg8
S'jeremy.blachman@enron.com'
p65
sg10
F25.0
sg11
Fnan
sg12
F850000.0
sg13
F0.08
sg14
Fnan
sg15
F2326.0
sg16
Fnan
sg17
F14.0
sg18
F272.0
sg19
F-23.0
sg20
Fnan
sg21
F1098546.0
sg22
F954354.0
sg23
F2.0
sg24
F189041.0
sg25
F248546.0
sg26
F0.8019173178925221
sg27
F2014835.0
sg28
F765313.0
sg29
F0.0056565656565656566
ssS'SUNDE MARTIN'
p66
(dp67
g3
F2647.0
sg4
Fnan
sg5
Fnan
sg6
I00
sg7
F476451.0
sg8
S'marty.sunde@enron.com'
p68
sg10
F37.0
sg11
Fnan
sg12
F700000.0
sg13
F0.35135135135135137
sg14
Fnan
sg15
F2565.0
sg16
Fnan
sg17
F38.0
sg18
F111122.0
sg19
F-24.0
sg20
Fnan
sg21
F957486.0
sg22
F698920.0
sg23
F13.0
sg24
F698920.0
sg25
F257486.0
sg26
Fnan
sg27
F1545059.0
sg28
Fnan
sg29
F0.014355874574990555
ssS'GIBBS DANA R'
p69
(dp70
g3
F169.0
sg4
F504610.0
sg5
Fnan
sg6
I00
sg7
F461912.0
sg8
S'dana.gibbs@enron.com'
p71
sg10
F0.0
sg11
Fnan
sg12
Fnan
sg13
Fnan
sg14
Fnan
sg15
F23.0
sg16
Fnan
sg17
F12.0
sg18
Fnan
sg19
F0.0
sg20
Fnan
sg21
Fnan
sg22
F2218275.0
sg23
F0.0
sg24
Fnan
sg25
Fnan
sg26
F1.0
sg27
F966522.0
sg28
F2218275.0
sg29
F0.07100591715976332
ssS'LOWRY CHARLES P'
p72
(dp73
g3
Fnan
sg4
Fnan
sg5
Fnan
sg6
I00
sg7
Fnan
sg8
g32
sg10
Fnan
sg11
Fnan
sg12
Fnan
sg13
Fnan
sg14
F-153686.0
sg15
Fnan
sg16
Fnan
sg17
Fnan
sg18
Fnan
sg19
Fnan
sg20
Fnan
sg21
Fnan
sg22
F372205.0
sg23
Fnan
sg24
F153686.0
sg25
Fnan
sg26
F1.0
sg27
Fnan
sg28
F372205.0
sg29
Fnan
ssS'COLWELL WESLEY'
p74
(dp75
g3
F1758.0
sg4
F27610.0
sg5
F16514.0
sg6
I01
sg7
Fnan
sg8
S'wes.colwell@enron.com'
p76
sg10
F240.0
sg11
F-144062.0
sg12
F1200000.0
sg13
F0.04583333333333333
sg14
Fnan
sg15
F1132.0
sg16
Fnan
sg17
F40.0
sg18
F101740.0
sg19
F-229.0
sg20
Fnan
sg21
F1488542.0
sg22
F698242.0
sg23
F11.0
sg24
F698242.0
sg25
F288542.0
sg26
Fnan
sg27
F1490344.0
sg28
Fnan
sg29
F0.022753128555176336
ssS'MULLER MARK S'
p77
(dp78
g3
F136.0
sg4
F842924.0
sg5
Fnan
sg6
I00
sg7
F1725545.0
sg8
S's..muller@enron.com'
p79
sg10
F12.0
sg11
F-719000.0
sg12
F1100000.0
sg13
F0.0
sg14
Fnan
sg15
F114.0
sg16
Fnan
sg17
F16.0
sg18
F947.0
sg19
F-12.0
sg20
Fnan
sg21
F1351654.0
sg22
F1416848.0
sg23
F0.0
sg24
F360528.0
sg25
F251654.0
sg26
F0.7455422176549636
sg27
F3202070.0
sg28
F1056320.0
sg29
F0.11764705882352941
ssS'JACKSON CHARLENE R'
p80
(dp81
g3
F258.0
sg4
Fnan
sg5
F10181.0
sg6
I00
sg7
Fnan
sg8
S'charlene.jackson@enron.com'
p82
sg10
F25.0
sg11
Fnan
sg12
F250000.0
sg13
F0.76
sg14
Fnan
sg15
F117.0
sg16
Fnan
sg17
F56.0
sg18
F2435.0
sg19
F-6.0
sg20
Fnan
sg21
F538558.0
sg22
F725735.0
sg23
F19.0
sg24
F540672.0
sg25
F288558.0
sg26
F0.25500079230021977
sg27
F551174.0
sg28
F185063.0
sg29
F0.21705426356589147
ssS'WESTFAHL RICHARD K'
p83
(dp84
g3
Fnan
sg4
Fnan
sg5
F51870.0
sg6
I00
sg7
F256191.0
sg8
S'dick.westfahl@enron.com'
p85
sg10
Fnan
sg11
F-10800.0
sg12
Fnan
sg13
Fnan
sg14
Fnan
sg15
Fnan
sg16
Fnan
sg17
Fnan
sg18
F401130.0
sg19
Fnan
sg20
Fnan
sg21
Fnan
sg22
F384930.0
sg23
Fnan
sg24
F384930.0
sg25
F63744.0
sg26
Fnan
sg27
F762135.0
sg28
Fnan
sg29
Fnan
ssS'WALTERS GARETH W'
p86
(dp87
g3
Fnan
sg4
F53625.0
sg5
F33785.0
sg6
I00
sg7
Fnan
sg8
g32
sg10
Fnan
sg11
Fnan
sg12
Fnan
sg13
Fnan
sg14
Fnan
sg15
Fnan
sg16
Fnan
sg17
Fnan
sg18
Fnan
sg19
Fnan
sg20
Fnan
sg21
Fnan
sg22
F1030329.0
sg23
Fnan
sg24
Fnan
sg25
Fnan
sg26
F1.0
sg27
F87410.0
sg28
F1030329.0
sg29
Fnan
ssS'WALLS JR ROBERT H'
p88
(dp89
g3
F671.0
sg4
Fnan
sg5
F50936.0
sg6
I00
sg7
F540751.0
sg8
S'rob.walls@enron.com'
p90
sg10
F17.0
sg11
Fnan
sg12
F850000.0
sg13
F0.0
sg14
Fnan
sg15
F215.0
sg16
Fnan
sg17
F146.0
sg18
F2.0
sg19
F-17.0
sg20
Fnan
sg21
F1207091.0
sg22
F5898997.0
sg23
F0.0
sg24
F1552453.0
sg25
F357091.0
sg26
F0.7368276335790643
sg27
F1798780.0
sg28
F4346544.0
sg29
F0.21758569299552907
ssS'KITCHEN LOUISE'
p91
(dp92
g3
F8305.0
sg4
Fnan
sg5
F5774.0
sg6
I00
sg7
Fnan
sg8
S'louise.kitchen@enron.com'
p93
sg10
F251.0
sg11
Fnan
sg12
F3100000.0
sg13
F0.7729083665338645
sg14
Fnan
sg15
F3669.0
sg16
Fnan
sg17
F1728.0
sg18
F93925.0
sg19
F-57.0
sg20
Fnan
sg21
F3371442.0
sg22
F547143.0
sg23
F194.0
sg24
F466101.0
sg25
F271442.0
sg26
F0.14811849918577044
sg27
F3471141.0
sg28
F81042.0
sg29
F0.20806742925948224
ssS'CHAN RONNIE'
p94
(dp95
g3
Fnan
sg4
Fnan
sg5
Fnan
sg6
I00
sg7
Fnan
sg8
g32
sg10
Fnan
sg11
F-98784.0
sg12
Fnan
sg13
Fnan
sg14
F-32460.0
sg15
Fnan
sg16
Fnan
sg17
Fnan
sg18
Fnan
sg19
Fnan
sg20
F98784.0
sg21
Fnan
sg22
Fnan
sg23
Fnan
sg24
F32460.0
sg25
Fnan
sg26
Fnan
sg27
Fnan
sg28
Fnan
sg29
Fnan
ssS'BELFER ROBERT'
p96
(dp97
g3
Fnan
sg4
Fnan
sg5
F3285.0
sg6
I00
sg7
Fnan
sg8
g32
sg10
Fnan
sg11
F-102500.0
sg12
Fnan
sg13
Fnan
sg14
F-44093.0
sg15
Fnan
sg16
Fnan
sg17
Fnan
sg18
Fnan
sg19
Fnan
sg20
F102500.0
sg21
Fnan
sg22
Fnan
sg23
Fnan
sg24
F44093.0
sg25
Fnan
sg26
Fnan
sg27
F3285.0
sg28
Fnan
sg29
Fnan
ssS'SHANKMAN JEFFREY A'
p98
(dp99
g3
F3221.0
sg4
Fnan
sg5
F178979.0
sg6
I00
sg7
F554422.0
sg8
S'jeffrey.shankman@enron.com'
p100
sg10
F94.0
sg11
Fnan
sg12
F2000000.0
sg13
F0.8829787234042553
sg14
Fnan
sg15
F1730.0
sg16
Fnan
sg17
F2681.0
sg18
F1191.0
sg19
F-11.0
sg20
Fnan
sg21
F2304110.0
sg22
F2072035.0
sg23
F83.0
sg24
F630137.0
sg25
F304110.0
sg26
F0.6958849633331483
sg27
F3038702.0
sg28
F1441898.0
sg29
F0.832350201800683
ssS'WODRASKA JOHN'
p101
(dp102
g3
Fnan
sg4
Fnan
sg5
Fnan
sg6
I00
sg7
Fnan
sg8
S'john.wodraska@enron.com'
p103
sg10
Fnan
sg11
Fnan
sg12
Fnan
sg13
Fnan
sg14
Fnan
sg15
Fnan
sg16
Fnan
sg17
Fnan
sg18
F189583.0
sg19
Fnan
sg20
Fnan
sg21
Fnan
sg22
Fnan
sg23
Fnan
sg24
Fnan
sg25
Fnan
sg26
Fnan
sg27
F189583.0
sg28
Fnan
sg29
Fnan
ssS'BERGSIEKER RICHARD P'
p104
(dp105
g3
F383.0
sg4
Fnan
sg5
F59175.0
sg6
I00
sg7
F180250.0
sg8
S'rick.bergsieker@enron.com'
p106
sg10
F4.0
sg11
F-485813.0
sg12
F250000.0
sg13
F0.0
sg14
Fnan
sg15
F233.0
sg16
Fnan
sg17
F59.0
sg18
F427316.0
sg19
F-4.0
sg20
Fnan
sg21
F437922.0
sg22
F659249.0
sg23
F0.0
sg24
F659249.0
sg25
F187922.0
sg26
Fnan
sg27
F618850.0
sg28
Fnan
sg29
F0.15404699738903394
ssS'URQUHART JOHN A'
p107
(dp108
g3
Fnan
sg4
Fnan
sg5
F228656.0
sg6
I00
sg7
Fnan
sg8
g32
sg10
Fnan
sg11
F-36666.0
sg12
Fnan
sg13
Fnan
sg14
Fnan
sg15
Fnan
sg16
Fnan
sg17
Fnan
sg18
Fnan
sg19
Fnan
sg20
F36666.0
sg21
Fnan
sg22
Fnan
sg23
Fnan
sg24
Fnan
sg25
Fnan
sg26
Fnan
sg27
F228656.0
sg28
Fnan
sg29
Fnan
ssS'BIBI PHILIPPE A'
p109
(dp110
g3
F1607.0
sg4
Fnan
sg5
F38559.0
sg6
I00
sg7
F369721.0
sg8
S'philippe.bibi@enron.com'
p111
sg10
F23.0
sg11
Fnan
sg12
F1000000.0
sg13
F0.34782608695652173
sg14
Fnan
sg15
F1336.0
sg16
Fnan
sg17
F40.0
sg18
F425688.0
sg19
F-15.0
sg20
Fnan
sg21
F1213625.0
sg22
F1843816.0
sg23
F8.0
sg24
F378082.0
sg25
F213625.0
sg26
F0.7949459165122768
sg27
F2047593.0
sg28
F1465734.0
sg29
F0.024891101431238332
ssS'PIRO JIM'
p112
(dp113
g3
F58.0
sg4
Fnan
sg5
Fnan
sg6
I00
sg7
Fnan
sg8
S'jim.piro@enron.com'
p114
sg10
F0.0
sg11
Fnan
sg12
Fnan
sg13
F19.227272727272727
sg14
Fnan
sg15
F3.0
sg16
Fnan
sg17
F16.0
sg18
Fnan
sg19
F1.0
sg20
Fnan
sg21
Fnan
sg22
F47304.0
sg23
F1.0
sg24
F47304.0
sg25
Fnan
sg26
Fnan
sg27
Fnan
sg28
Fnan
sg29
F0.27586206896551724
ssS'RIEKER PAULA H'
p115
(dp116
g3
F1328.0
sg4
F214678.0
sg5
F33271.0
sg6
I01
sg7
Fnan
sg8
S'paula.rieker@enron.com'
p117
sg10
F35.0
sg11
F-100000.0
sg12
F700000.0
sg13
F1.3714285714285714
sg14
Fnan
sg15
F1258.0
sg16
Fnan
sg17
F82.0
sg18
F1950.0
sg19
F13.0
sg20
Fnan
sg21
F949201.0
sg22
F1918887.0
sg23
F48.0
sg24
F283649.0
sg25
F249201.0
sg26
F0.8521804566918219
sg27
F1099100.0
sg28
F1635238.0
sg29
F0.061746987951807226
ssS'WHALEY DAVID A'
p118
(dp119
g3
Fnan
sg4
Fnan
sg5
Fnan
sg6
I00
sg7
Fnan
sg8
g32
sg10
Fnan
sg11
Fnan
sg12
Fnan
sg13
Fnan
sg14
Fnan
sg15
Fnan
sg16
Fnan
sg17
Fnan
sg18
Fnan
sg19
Fnan
sg20
Fnan
sg21
Fnan
sg22
F98718.0
sg23
Fnan
sg24
Fnan
sg25
Fnan
sg26
F1.0
sg27
Fnan
sg28
F98718.0
sg29
Fnan
ssS'BECK SALLY W'
p120
(dp121
g3
F7315.0
sg4
Fnan
sg5
F37172.0
sg6
I00
sg7
Fnan
sg8
S'sally.beck@enron.com'
p122
sg10
F144.0
sg11
Fnan
sg12
F700000.0
sg13
F2.6805555555555554
sg14
Fnan
sg15
F2639.0
sg16
Fnan
sg17
F4343.0
sg18
F566.0
sg19
F242.0
sg20
Fnan
sg21
F931330.0
sg22
F126027.0
sg23
F386.0
sg24
F126027.0
sg25
F231330.0
sg26
Fnan
sg27
F969068.0
sg28
Fnan
sg29
F0.5937115516062884
ssS'HAUG DAVID L'
p123
(dp124
g3
F573.0
sg4
Fnan
sg5
F475.0
sg6
I00
sg7
Fnan
sg8
S'david.haug@enron.com'
p125
sg10
F4.0
sg11
Fnan
sg12
Fnan
sg13
F1.75
sg14
Fnan
sg15
F471.0
sg16
Fnan
sg17
F19.0
sg18
Fnan
sg19
F3.0
sg20
Fnan
sg21
Fnan
sg22
F2217299.0
sg23
F7.0
sg24
F2217299.0
sg25
Fnan
sg26
Fnan
sg27
F475.0
sg28
Fnan
sg29
F0.03315881326352531
ssS'ECHOLS JOHN B'
p126
(dp127
g3
Fnan
sg4
Fnan
sg5
F21530.0
sg6
I00
sg7
F2234774.0
sg8
S'john.echols@enron.com'
p128
sg10
Fnan
sg11
Fnan
sg12
F200000.0
sg13
Fnan
sg14
Fnan
sg15
Fnan
sg16
Fnan
sg17
Fnan
sg18
F53775.0
sg19
Fnan
sg20
Fnan
sg21
F382245.0
sg22
F1008941.0
sg23
Fnan
sg24
F407503.0
sg25
F182245.0
sg26
F0.5961081966140735
sg27
F2692324.0
sg28
F601438.0
sg29
Fnan
ssS'MENDELSOHN JOHN'
p129
(dp130
g3
Fnan
sg4
Fnan
sg5
F148.0
sg6
I00
sg7
Fnan
sg8
g32
sg10
Fnan
sg11
F-103750.0
sg12
Fnan
sg13
Fnan
sg14
Fnan
sg15
Fnan
sg16
Fnan
sg17
Fnan
sg18
Fnan
sg19
Fnan
sg20
F103750.0
sg21
Fnan
sg22
Fnan
sg23
Fnan
sg24
Fnan
sg25
Fnan
sg26
Fnan
sg27
F148.0
sg28
Fnan
sg29
Fnan
ssS'HICKERSON GARY J'
p131
(dp132
g3
F1320.0
sg4
Fnan
sg5
F98849.0
sg6
I00
sg7
F69223.0
sg8
S'gary.hickerson@enron.com'
p133
sg10
F40.0
sg11
Fnan
sg12
F1700000.0
sg13
F0.025
sg14
Fnan
sg15
F900.0
sg16
Fnan
sg17
F27.0
sg18
F1936.0
sg19
F-39.0
sg20
Fnan
sg21
F1911788.0
sg22
F441096.0
sg23
F1.0
sg24
F441096.0
sg25
F211788.0
sg26
Fnan
sg27
F2081796.0
sg28
Fnan
sg29
F0.020454545454545454
ssS'CLINE KENNETH W'
p134
(dp135
g3
Fnan
sg4
Fnan
sg5
Fnan
sg6
I00
sg7
Fnan
sg8
g32
sg10
Fnan
sg11
Fnan
sg12
Fnan
sg13
Fnan
sg14
F-472568.0
sg15
Fnan
sg16
Fnan
sg17
Fnan
sg18
Fnan
sg19
Fnan
sg20
Fnan
sg21
Fnan
sg22
F189518.0
sg23
Fnan
sg24
F662086.0
sg25
Fnan
sg26
Fnan
sg27
Fnan
sg28
Fnan
sg29
Fnan
ssS'LEWIS RICHARD'
p136
(dp137
g3
F952.0
sg4
Fnan
sg5
Fnan
sg6
I00
sg7
Fnan
sg8
S'richard.lewis@enron.com'
p138
sg10
F10.0
sg11
Fnan
sg12
Fnan
sg13
F0.0
sg14
Fnan
sg15
F739.0
sg16
Fnan
sg17
F26.0
sg18
Fnan
sg19
F-10.0
sg20
Fnan
sg21
Fnan
sg22
F850477.0
sg23
F0.0
sg24
Fnan
sg25
Fnan
sg26
F1.0
sg27
Fnan
sg28
F850477.0
sg29
F0.0273109243697479
ssS'HAYES ROBERT E'
p139
(dp140
g3
F504.0
sg4
F7961.0
sg5
Fnan
sg6
I00
sg7
Fnan
sg8
S'robert.hayes@enron.com'
p141
sg10
F16.0
sg11
Fnan
sg12
Fnan
sg13
F0.0
sg14
Fnan
sg15
F50.0
sg16
Fnan
sg17
F12.0
sg18
Fnan
sg19
F-16.0
sg20
Fnan
sg21
Fnan
sg22
F151418.0
sg23
F0.0
sg24
F151418.0
sg25
Fnan
sg26
Fnan
sg27
F7961.0
sg28
Fnan
sg29
F0.023809523809523808
ssS'KOPPER MICHAEL J'
p142
(dp143
g3
Fnan
sg4
Fnan
sg5
F118134.0
sg6
I01
sg7
F602671.0
sg8
S'michael.kopper@enron.com'
p144
sg10
Fnan
sg11
Fnan
sg12
F800000.0
sg13
Fnan
sg14
Fnan
sg15
Fnan
sg16
Fnan
sg17
Fnan
sg18
F907502.0
sg19
Fnan
sg20
Fnan
sg21
F1024305.0
sg22
F985032.0
sg23
Fnan
sg24
F985032.0
sg25
F224305.0
sg26
Fnan
sg27
F2652612.0
sg28
Fnan
sg29
Fnan
ssS'LEFF DANIEL P'
p145
(dp146
g3
F2822.0
sg4
Fnan
sg5
Fnan
sg6
I00
sg7
F1387399.0
sg8
S'dan.leff@enron.com'
p147
sg10
F67.0
sg11
Fnan
sg12
F1000000.0
sg13
F0.208955223880597
sg14
Fnan
sg15
F2672.0
sg16
Fnan
sg17
F63.0
sg18
F3083.0
sg19
F-53.0
sg20
Fnan
sg21
F1273746.0
sg22
F360528.0
sg23
F14.0
sg24
F360528.0
sg25
F273746.0
sg26
Fnan
sg27
F2664228.0
sg28
Fnan
sg29
F0.02232459248759745
ssS'LAVORATO JOHN J'
p148
(dp149
g3
F7259.0
sg4
Fnan
sg5
F49537.0
sg6
I00
sg7
F2035380.0
sg8
S'john.lavorato@enron.com'
p150
sg10
F528.0
sg11
Fnan
sg12
F8000000.0
sg13
F0.7784090909090909
sg14
Fnan
sg15
F3962.0
sg16
Fnan
sg17
F2585.0
sg18
F1552.0
sg19
F-117.0
sg20
Fnan
sg21
F8339288.0
sg22
F5167144.0
sg23
F411.0
sg24
F1008149.0
sg25
F339288.0
sg26
F0.80489241252034
sg27
F10425757.0
sg28
F4158995.0
sg29
F0.3561096569775451
ssS'BERBERIAN DAVID'
p151
(dp152
g3
Fnan
sg4
Fnan
sg5
F11892.0
sg6
I00
sg7
Fnan
sg8
S'david.berberian@enron.com'
p153
sg10
Fnan
sg11
Fnan
sg12
Fnan
sg13
Fnan
sg14
Fnan
sg15
Fnan
sg16
Fnan
sg17
Fnan
sg18
Fnan
sg19
Fnan
sg20
Fnan
sg21
Fnan
sg22
F2493616.0
sg23
Fnan
sg24
F869220.0
sg25
F216582.0
sg26
F0.6514218708895034
sg27
F228474.0
sg28
F1624396.0
sg29
Fnan
ssS'DETMERING TIMOTHY J'
p154
(dp155
g3
Fnan
sg4
F875307.0
sg5
F52255.0
sg6
I00
sg7
F415657.0
sg8
S'timothy.detmering@enron.com'
p156
sg10
Fnan
sg11
F-775241.0
sg12
F425000.0
sg13
Fnan
sg14
F-315068.0
sg15
Fnan
sg16
Fnan
sg17
Fnan
sg18
F1105.0
sg19
Fnan
sg20
Fnan
sg21
F635500.0
sg22
F2027865.0
sg23
Fnan
sg24
F315068.0
sg25
F210500.0
sg26
F1.0
sg27
F1204583.0
sg28
F2027865.0
sg29
Fnan
ssS'WAKEHAM JOHN'
p157
(dp158
g3
Fnan
sg4
Fnan
sg5
F103773.0
sg6
I00
sg7
Fnan
sg8
g32
sg10
Fnan
sg11
Fnan
sg12
Fnan
sg13
Fnan
sg14
Fnan
sg15
Fnan
sg16
Fnan
sg17
Fnan
sg18
Fnan
sg19
Fnan
sg20
F109298.0
sg21
Fnan
sg22
Fnan
sg23
Fnan
sg24
Fnan
sg25
Fnan
sg26
Fnan
sg27
F213071.0
sg28
Fnan
sg29
Fnan
ssS'POWERS WILLIAM'
p159
(dp160
g3
F653.0
sg4
Fnan
sg5
Fnan
sg6
I00
sg7
Fnan
sg8
S'ken.powers@enron.com'
p161
sg10
F0.0
sg11
F-17500.0
sg12
Fnan
sg13
Fnan
sg14
Fnan
sg15
F12.0
sg16
Fnan
sg17
F26.0
sg18
Fnan
sg19
F0.0
sg20
F17500.0
sg21
Fnan
sg22
Fnan
sg23
F0.0
sg24
Fnan
sg25
Fnan
sg26
Fnan
sg27
Fnan
sg28
Fnan
sg29
F0.039816232771822356
ssS'GOLD JOSEPH'
p162
(dp163
g3
Fnan
sg4
Fnan
sg5
Fnan
sg6
I00
sg7
F304805.0
sg8
S'joe.gold@enron.com'
p164
sg10
Fnan
sg11
Fnan
sg12
F750000.0
sg13
Fnan
sg14
Fnan
sg15
Fnan
sg16
Fnan
sg17
Fnan
sg18
F819288.0
sg19
Fnan
sg20
Fnan
sg21
F1022880.0
sg22
F877611.0
sg23
Fnan
sg24
F441096.0
sg25
F272880.0
sg26
F0.4973900737342627
sg27
F2146973.0
sg28
F436515.0
sg29
Fnan
ssS'BANNANTINE JAMES M'
p165
(dp166
g3
F566.0
sg4
Fnan
sg5
F56301.0
sg6
I00
sg7
Fnan
sg8
S'james.bannantine@enron.com'
p167
sg10
F39.0
sg11
F-5104.0
sg12
Fnan
sg13
F0.0
sg14
F-560222.0
sg15
F465.0
sg16
Fnan
sg17
F29.0
sg18
F864523.0
sg19
F-39.0
sg20
Fnan
sg21
Fnan
sg22
F5243487.0
sg23
F0.0
sg24
F1757552.0
sg25
F477.0
sg26
F0.7716538631639595
sg27
F916197.0
sg28
F4046157.0
sg29
F0.05123674911660778
ssS'DUNCAN JOHN H'
p168
(dp169
g3
Fnan
sg4
Fnan
sg5
Fnan
sg6
I00
sg7
Fnan
sg8
g32
sg10
Fnan
sg11
F-25000.0
sg12
Fnan
sg13
Fnan
sg14
Fnan
sg15
Fnan
sg16
Fnan
sg17
Fnan
sg18
Fnan
sg19
Fnan
sg20
F102492.0
sg21
Fnan
sg22
F371750.0
sg23
Fnan
sg24
Fnan
sg25
Fnan
sg26
F1.0
sg27
F77492.0
sg28
F371750.0
sg29
Fnan
ssS'SHAPIRO RICHARD S'
p170
(dp171
g3
F15149.0
sg4
Fnan
sg5
F137767.0
sg6
I00
sg7
Fnan
sg8
S'richard.shapiro@enron.com'
p172
sg10
F74.0
sg11
Fnan
sg12
F650000.0
sg13
F0.8783783783783784
sg14
Fnan
sg15
F4527.0
sg16
Fnan
sg17
F1215.0
sg18
F705.0
sg19
F-9.0
sg20
Fnan
sg21
F919076.0
sg22
F987001.0
sg23
F65.0
sg24
F379164.0
sg25
F269076.0
sg26
F0.6158423345062467
sg27
F1057548.0
sg28
F607837.0
sg29
F0.08020331375008251
ssS'SHERRIFF JOHN R'
p173
(dp174
g3
F3187.0
sg4
Fnan
sg5
Fnan
sg6
I00
sg7
F554422.0
sg8
S'john.sherriff@enron.com'
p175
sg10
F28.0
sg11
Fnan
sg12
F1500000.0
sg13
F0.8214285714285714
sg14
Fnan
sg15
F2103.0
sg16
Fnan
sg17
F92.0
sg18
F1852186.0
sg19
F-5.0
sg20
Fnan
sg21
F1928780.0
sg22
F3128982.0
sg23
F23.0
sg24
F1293424.0
sg25
F428780.0
sg26
F0.5866310512492562
sg27
F4335388.0
sg28
F1835558.0
sg29
F0.028867273297772198
ssS'SHELBY REX'
p176
(dp177
g3
F225.0
sg4
Fnan
sg5
F22884.0
sg6
I01
sg7
Fnan
sg8
S'rex.shelby@enron.com'
p178
sg10
F13.0
sg11
F-4167.0
sg12
F200000.0
sg13
F1.0769230769230769
sg14
Fnan
sg15
F91.0
sg16
Fnan
sg17
F39.0
sg18
F1573324.0
sg19
F1.0
sg20
Fnan
sg21
F411844.0
sg22
F2493616.0
sg23
F14.0
sg24
F869220.0
sg25
F211844.0
sg26
F0.6514218708895034
sg27
F2003885.0
sg28
F1624396.0
sg29
F0.17333333333333334
ssS'LEMAISTRE CHARLES'
p179
(dp180
g3
Fnan
sg4
Fnan
sg5
Fnan
sg6
I00
sg7
Fnan
sg8
g32
sg10
Fnan
sg11
F-25000.0
sg12
Fnan
sg13
Fnan
sg14
Fnan
sg15
Fnan
sg16
Fnan
sg17
Fnan
sg18
Fnan
sg19
Fnan
sg20
F112492.0
sg21
Fnan
sg22
F412878.0
sg23
Fnan
sg24
Fnan
sg25
Fnan
sg26
F1.0
sg27
F87492.0
sg28
F412878.0
sg29
Fnan
ssS'DEFFNER JOSEPH M'
p181
(dp182
g3
F714.0
sg4
Fnan
sg5
F41626.0
sg6
I00
sg7
F335349.0
sg8
S'joseph.deffner@enron.com'
p183
sg10
F115.0
sg11
Fnan
sg12
F600000.0
sg13
F0.034782608695652174
sg14
Fnan
sg15
F552.0
sg16
Fnan
sg17
F74.0
sg18
F25553.0
sg19
F-111.0
sg20
Fnan
sg21
F806121.0
sg22
F159211.0
sg23
F4.0
sg24
F141833.0
sg25
F206121.0
sg26
F0.10915074963413332
sg27
F1208649.0
sg28
F17378.0
sg29
F0.10364145658263306
ssS'KISHKILL JOSEPH G'
p184
(dp185
g3
Fnan
sg4
Fnan
sg5
F116335.0
sg6
I00
sg7
Fnan
sg8
S'joe.kishkill@enron.com'
p186
sg10
Fnan
sg11
F-51042.0
sg12
Fnan
sg13
Fnan
sg14
Fnan
sg15
Fnan
sg16
Fnan
sg17
Fnan
sg18
F465357.0
sg19
Fnan
sg20
Fnan
sg21
Fnan
sg22
F1034346.0
sg23
Fnan
sg24
F1034346.0
sg25
F174246.0
sg26
Fnan
sg27
F704896.0
sg28
Fnan
sg29
Fnan
ssS'WHALLEY LAWRENCE G'
p187
(dp188
g3
F6019.0
sg4
Fnan
sg5
F57838.0
sg6
I00
sg7
F808346.0
sg8
S'greg.whalley@enron.com'
p189
sg10
F186.0
sg11
Fnan
sg12
F3000000.0
sg13
F0.12903225806451613
sg14
Fnan
sg15
F3920.0
sg16
Fnan
sg17
F556.0
sg18
F301026.0
sg19
F-162.0
sg20
Fnan
sg21
F3510364.0
sg22
F6079137.0
sg23
F24.0
sg24
F2796177.0
sg25
F510364.0
sg26
F0.5400371796194098
sg27
F4677574.0
sg28
F3282960.0
sg29
F0.09237414852965609
ssS'MCCARTY DANNY J'
p190
(dp191
g3
F1433.0
sg4
Fnan
sg5
Fnan
sg6
I00
sg7
Fnan
sg8
S'danny.mccarty@enron.com'
p192
sg10
F25.0
sg11
Fnan
sg12
Fnan
sg13
F0.08
sg14
Fnan
sg15
F508.0
sg16
Fnan
sg17
F215.0
sg18
Fnan
sg19
F-23.0
sg20
Fnan
sg21
Fnan
sg22
F758931.0
sg23
F2.0
sg24
F94556.0
sg25
Fnan
sg26
F0.8754089633971995
sg27
Fnan
sg28
F664375.0
sg29
F0.15003489183531055
ssS'MCCONNELL MICHAEL S'
p193
(dp194
g3
F3329.0
sg4
Fnan
sg5
F81364.0
sg6
I00
sg7
F554422.0
sg8
S'mike.mcconnell@enron.com'
p195
sg10
F92.0
sg11
Fnan
sg12
F1100000.0
sg13
F2.108695652173913
sg14
Fnan
sg15
F2189.0
sg16
Fnan
sg17
F2742.0
sg18
F540.0
sg19
F102.0
sg20
Fnan
sg21
F1465038.0
sg22
F3101279.0
sg23
F194.0
sg24
F1478269.0
sg25
F365038.0
sg26
F0.5233356947246603
sg27
F2101364.0
sg28
F1623010.0
sg29
F0.8236707720036047
ssS'DELAINEY DAVID W'
p196
(dp197
g3
F3093.0
sg4
Fnan
sg5
F86174.0
sg6
I01
sg7
F1294981.0
sg8
S'david.delainey@enron.com'
p198
sg10
F66.0
sg11
Fnan
sg12
F3000000.0
sg13
F9.227272727272727
sg14
Fnan
sg15
F2097.0
sg16
Fnan
sg17
F3069.0
sg18
F1661.0
sg19
F543.0
sg20
Fnan
sg21
F3365163.0
sg22
F3614261.0
sg23
F609.0
sg24
F1323148.0
sg25
F365163.0
sg26
F0.6339091172441614
sg27
F4747979.0
sg28
F2291113.0
sg29
F0.9922405431619786
ssS'SULLIVAN-SHAKLOVITZ COLLEEN'
p199
(dp200
g3
Fnan
sg4
F181993.0
sg5
Fnan
sg6
I00
sg7
F554422.0
sg8
g32
sg10
Fnan
sg11
Fnan
sg12
F100000.0
sg13
Fnan
sg14
Fnan
sg15
Fnan
sg16
Fnan
sg17
Fnan
sg18
F162.0
sg19
Fnan
sg20
Fnan
sg21
F262779.0
sg22
F1362375.0
sg23
Fnan
sg24
Fnan
sg25
F162779.0
sg26
F1.0
sg27
F999356.0
sg28
F1362375.0
sg29
Fnan
ssS'WROBEL BRUCE'
p201
(dp202
g3
Fnan
sg4
Fnan
sg5
Fnan
sg6
I00
sg7
Fnan
sg8
g32
sg10
Fnan
sg11
Fnan
sg12
Fnan
sg13
Fnan
sg14
Fnan
sg15
Fnan
sg16
Fnan
sg17
Fnan
sg18
Fnan
sg19
Fnan
sg20
Fnan
sg21
Fnan
sg22
F139130.0
sg23
Fnan
sg24
Fnan
sg25
Fnan
sg26
F1.0
sg27
Fnan
sg28
F139130.0
sg29
Fnan
ssS'LINDHOLM TOD A'
p203
(dp204
g3
Fnan
sg4
F204075.0
sg5
F57727.0
sg6
I00
sg7
F175000.0
sg8
S'tod.lindholm@enron.com'
p205
sg10
Fnan
sg11
Fnan
sg12
F200000.0
sg13
Fnan
sg14
Fnan
sg15
Fnan
sg16
Fnan
sg17
Fnan
sg18
F2630.0
sg19
Fnan
sg20
Fnan
sg21
F436457.0
sg22
F3064208.0
sg23
Fnan
sg24
F514847.0
sg25
F236457.0
sg26
F0.8319804008083003
sg27
F875889.0
sg28
F2549361.0
sg29
Fnan
ssS'MEYER JEROME J'
p206
(dp207
g3
Fnan
sg4
Fnan
sg5
F2151.0
sg6
I00
sg7
Fnan
sg8
g32
sg10
Fnan
sg11
F-38346.0
sg12
Fnan
sg13
Fnan
sg14
Fnan
sg15
Fnan
sg16
Fnan
sg17
Fnan
sg18
Fnan
sg19
Fnan
sg20
F38346.0
sg21
Fnan
sg22
Fnan
sg23
Fnan
sg24
Fnan
sg25
Fnan
sg26
Fnan
sg27
F2151.0
sg28
Fnan
sg29
Fnan
ssS'LAY KENNETH L'
p208
(dp209
g3
F4273.0
sg4
F202911.0
sg5
F99832.0
sg6
I01
sg7
F3600000.0
sg8
S'kenneth.lay@enron.com'
p210
sg10
F123.0
sg11
F-300000.0
sg12
F7000000.0
sg13
F0.13008130081300814
sg14
Fnan
sg15
F2411.0
sg16
F81525000.0
sg17
F36.0
sg18
F10359729.0
sg19
F-107.0
sg20
Fnan
sg21
F8072321.0
sg22
F49110078.0
sg23
F16.0
sg24
F14761694.0
sg25
F1072321.0
sg26
F0.6994161972212709
sg27
F103559793.0
sg28
F34348384.0
sg29
F0.008424994149309618
ssS'BUTTS ROBERT H'
p211
(dp212
g3
Fnan
sg4
Fnan
sg5
F9410.0
sg6
I00
sg7
F175000.0
sg8
S'bob.butts@enron.com'
p213
sg10
Fnan
sg11
F-75000.0
sg12
F750000.0
sg13
Fnan
sg14
Fnan
sg15
Fnan
sg16
Fnan
sg17
Fnan
sg18
F150656.0
sg19
Fnan
sg20
Fnan
sg21
F1011516.0
sg22
F417619.0
sg23
Fnan
sg24
F417619.0
sg25
F261516.0
sg26
Fnan
sg27
F1271582.0
sg28
Fnan
sg29
Fnan
ssS'OLSON CINDY K'
p214
(dp215
g3
F1184.0
sg4
F77716.0
sg5
F63791.0
sg6
I00
sg7
F100000.0
sg8
S'cindy.olson@enron.com'
p216
sg10
F20.0
sg11
Fnan
sg12
F750000.0
sg13
F0.75
sg14
Fnan
sg15
F856.0
sg16
Fnan
sg17
F52.0
sg18
F972.0
sg19
F-5.0
sg20
Fnan
sg21
F1079078.0
sg22
F2606763.0
sg23
F15.0
sg24
F969729.0
sg25
F329078.0
sg26
F0.6279949500587511
sg27
F1321557.0
sg28
F1637034.0
sg29
F0.04391891891891892
ssS'MCDONALD REBECCA'
p217
(dp218
g3
F894.0
sg4
Fnan
sg5
Fnan
sg6
I00
sg7
Fnan
sg8
S'rebecca.mcdonald@enron.com'
p219
sg10
F54.0
sg11
Fnan
sg12
Fnan
sg13
F0.018518518518518517
sg14
Fnan
sg15
F720.0
sg16
Fnan
sg17
F13.0
sg18
Fnan
sg19
F-53.0
sg20
Fnan
sg21
Fnan
sg22
F1691366.0
sg23
F1.0
sg24
F934065.0
sg25
Fnan
sg26
F0.4477451953036776
sg27
Fnan
sg28
F757301.0
sg29
F0.0145413870246085
ssS'CUMBERLAND MICHAEL S'
p220
(dp221
g3
Fnan
sg4
Fnan
sg5
F22344.0
sg6
I00
sg7
F275000.0
sg8
g32
sg10
Fnan
sg11
Fnan
sg12
F325000.0
sg13
Fnan
sg14
Fnan
sg15
Fnan
sg16
Fnan
sg17
Fnan
sg18
F713.0
sg19
Fnan
sg20
Fnan
sg21
F509899.0
sg22
F207940.0
sg23
Fnan
sg24
F207940.0
sg25
F184899.0
sg26
Fnan
sg27
F807956.0
sg28
Fnan
sg29
Fnan
ssS'GAHN ROBERT S'
p222
(dp223
g3
Fnan
sg4
F73122.0
sg5
F50080.0
sg6
I00
sg7
Fnan
sg8
g32
sg10
Fnan
sg11
F-1042.0
sg12
F509870.0
sg13
Fnan
sg14
Fnan
sg15
Fnan
sg16
Fnan
sg17
Fnan
sg18
F76547.0
sg19
Fnan
sg20
Fnan
sg21
F701878.0
sg22
F318607.0
sg23
Fnan
sg24
F235370.0
sg25
F192008.0
sg26
F0.2612528914932817
sg27
F900585.0
sg28
F83237.0
sg29
Fnan
ssS'MCCLELLAN GEORGE'
p224
(dp225
g3
F1744.0
sg4
Fnan
sg5
F228763.0
sg6
I00
sg7
Fnan
sg8
S'george.mcclellan@enron.com'
p226
sg10
F52.0
sg11
F-125000.0
sg12
F900000.0
sg13
F0.0
sg14
Fnan
sg15
F1469.0
sg16
Fnan
sg17
F49.0
sg18
F51587.0
sg19
F-52.0
sg20
Fnan
sg21
F1163413.0
sg22
F947861.0
sg23
F0.0
sg24
F441096.0
sg25
F263413.0
sg26
F0.534640627686971
sg27
F1318763.0
sg28
F506765.0
sg29
F0.02809633027522936
ssS'HERMANN ROBERT J'
p227
(dp228
g3
Fnan
sg4
Fnan
sg5
F48357.0
sg6
I00
sg7
F150000.0
sg8
S'robert.hermann@enron.com'
p229
sg10
Fnan
sg11
F-280000.0
sg12
F700000.0
sg13
Fnan
sg14
Fnan
sg15
Fnan
sg16
Fnan
sg17
Fnan
sg18
F416441.0
sg19
Fnan
sg20
Fnan
sg21
F962663.0
sg22
F668132.0
sg23
Fnan
sg24
F480632.0
sg25
F262663.0
sg26
F0.2806331682960852
sg27
F1297461.0
sg28
F187500.0
sg29
Fnan
ssS'SCRIMSHAW MATTHEW'
p230
(dp231
g3
Fnan
sg4
Fnan
sg5
Fnan
sg6
I00
sg7
Fnan
sg8
S'matthew.scrimshaw@enron.com'
p232
sg10
Fnan
sg11
Fnan
sg12
Fnan
sg13
Fnan
sg14
Fnan
sg15
Fnan
sg16
Fnan
sg17
Fnan
sg18
Fnan
sg19
Fnan
sg20
Fnan
sg21
Fnan
sg22
F759557.0
sg23
Fnan
sg24
Fnan
sg25
Fnan
sg26
F1.0
sg27
Fnan
sg28
F759557.0
sg29
Fnan
ssS'GATHMANN WILLIAM D'
p233
(dp234
g3
Fnan
sg4
Fnan
sg5
Fnan
sg6
I00
sg7
Fnan
sg8
g32
sg10
Fnan
sg11
Fnan
sg12
Fnan
sg13
Fnan
sg14
F-72419.0
sg15
Fnan
sg16
Fnan
sg17
Fnan
sg18
Fnan
sg19
Fnan
sg20
Fnan
sg21
Fnan
sg22
F1945360.0
sg23
Fnan
sg24
F264013.0
sg25
Fnan
sg26
F0.9015123164864087
sg27
Fnan
sg28
F1753766.0
sg29
Fnan
ssS'HAEDICKE MARK E'
p235
(dp236
g3
F4009.0
sg4
F2157527.0
sg5
F76169.0
sg6
I00
sg7
F983346.0
sg8
S'mark.haedicke@enron.com'
p237
sg10
F180.0
sg11
F-934484.0
sg12
F1150000.0
sg13
F0.3388888888888889
sg14
F-329825.0
sg15
F1847.0
sg16
Fnan
sg17
F1941.0
sg18
F52382.0
sg19
F-119.0
sg20
Fnan
sg21
F1524125.0
sg22
F803094.0
sg23
F61.0
sg24
F524169.0
sg25
F374125.0
sg26
F0.7580059121348186
sg27
F3859065.0
sg28
F608750.0
sg29
F0.4841606385632327
ssS'BOWEN JR RAYMOND M'
p238
(dp239
g3
F1858.0
sg4
Fnan
sg5
F65907.0
sg6
I01
sg7
F974293.0
sg8
S'raymond.bowen@enron.com'
p240
sg10
F140.0
sg11
F-833.0
sg12
F1350000.0
sg13
F0.10714285714285714
sg14
Fnan
sg15
F1593.0
sg16
Fnan
sg17
F27.0
sg18
F1621.0
sg19
F-125.0
sg20
Fnan
sg21
F1628601.0
sg22
F252055.0
sg23
F15.0
sg24
F252055.0
sg25
F278601.0
sg26
Fnan
sg27
F2669589.0
sg28
Fnan
sg29
F0.014531754574811625
ssS'GILLIS JOHN'
p241
(dp242
g3
Fnan
sg4
Fnan
sg5
Fnan
sg6
I00
sg7
Fnan
sg8
g32
sg10
Fnan
sg11
Fnan
sg12
Fnan
sg13
Fnan
sg14
Fnan
sg15
Fnan
sg16
Fnan
sg17
Fnan
sg18
Fnan
sg19
Fnan
sg20
Fnan
sg21
Fnan
sg22
F85641.0
sg23
Fnan
sg24
F75838.0
sg25
Fnan
sg26
F0.11446620193598861
sg27
Fnan
sg28
F9803.0
sg29
Fnan
ssS'FITZGERALD JAY L'
p243
(dp244
g3
F936.0
sg4
Fnan
sg5
F23870.0
sg6
I00
sg7
F556416.0
sg8
S'jay.fitzgerald@enron.com'
p245
sg10
F1.0
sg11
Fnan
sg12
F350000.0
sg13
F8.0
sg14
Fnan
sg15
F723.0
sg16
Fnan
sg17
F16.0
sg18
F285414.0
sg19
F7.0
sg20
Fnan
sg21
F549157.0
sg22
F1621236.0
sg23
F8.0
sg24
F956775.0
sg25
F199157.0
sg26
F0.40984841195236227
sg27
F1414857.0
sg28
F664461.0
sg29
F0.017094017094017096
ssS'MORAN MICHAEL P'
p246
(dp247
g3
F672.0
sg4
Fnan
sg5
Fnan
sg6
I00
sg7
Fnan
sg8
S'michael.moran@enron.com'
p248
sg10
F0.0
sg11
Fnan
sg12
Fnan
sg13
Fnan
sg14
Fnan
sg15
F127.0
sg16
Fnan
sg17
F19.0
sg18
Fnan
sg19
F0.0
sg20
Fnan
sg21
Fnan
sg22
F221141.0
sg23
F0.0
sg24
F161602.0
sg25
Fnan
sg26
F0.2692354651557151
sg27
Fnan
sg28
F59539.0
sg29
F0.028273809523809524
ssS'REDMOND BRIAN L'
p249
(dp250
g3
F1671.0
sg4
Fnan
sg5
F14689.0
sg6
I00
sg7
Fnan
sg8
S'brian.redmond@enron.com'
p251
sg10
F204.0
sg11
Fnan
sg12
Fnan
sg13
F0.24019607843137256
sg14
Fnan
sg15
F1063.0
sg16
Fnan
sg17
F221.0
sg18
Fnan
sg19
F-155.0
sg20
Fnan
sg21
Fnan
sg22
F7890324.0
sg23
F49.0
sg24
F381285.0
sg25
F96840.0
sg26
F0.951676889314051
sg27
F111529.0
sg28
F7509039.0
sg29
F0.1322561340514662
ssS'BAZELIDES PHILIP J'
p252
(dp253
g3
Fnan
sg4
F684694.0
sg5
Fnan
sg6
I00
sg7
F93750.0
sg8
g32
sg10
Fnan
sg11
Fnan
sg12
Fnan
sg13
Fnan
sg14
Fnan
sg15
Fnan
sg16
Fnan
sg17
Fnan
sg18
F874.0
sg19
Fnan
sg20
Fnan
sg21
Fnan
sg22
F1599641.0
sg23
Fnan
sg24
Fnan
sg25
F80818.0
sg26
F1.0
sg27
F860136.0
sg28
F1599641.0
sg29
Fnan
ssS'BELDEN TIMOTHY N'
p254
(dp255
g3
F7991.0
sg4
F2144013.0
sg5
F17355.0
sg6
I01
sg7
Fnan
sg8
S'tim.belden@enron.com'
p256
sg10
F228.0
sg11
F-2334434.0
sg12
F5249999.0
sg13
F0.47368421052631576
sg14
Fnan
sg15
F5521.0
sg16
Fnan
sg17
F484.0
sg18
F210698.0
sg19
F-120.0
sg20
Fnan
sg21
F5463998.0
sg22
F1110705.0
sg23
F108.0
sg24
F157569.0
sg25
F213999.0
sg26
F0.8581360487258093
sg27
F5501630.0
sg28
F953136.0
sg29
F0.06056813915655112
ssS'DURAN WILLIAM D'
p257
(dp258
g3
F904.0
sg4
Fnan
sg5
F25785.0
sg6
I00
sg7
F1105218.0
sg8
S'w.duran@enron.com'
p259
sg10
F106.0
sg11
Fnan
sg12
F750000.0
sg13
F0.02830188679245283
sg14
Fnan
sg15
F599.0
sg16
Fnan
sg17
F12.0
sg18
F1568.0
sg19
F-103.0
sg20
Fnan
sg21
F960692.0
sg22
F1640910.0
sg23
F3.0
sg24
F189041.0
sg25
F210692.0
sg26
F0.8847950222742259
sg27
F2093263.0
sg28
F1451869.0
sg29
F0.01327433628318584
ssS'THORN TERENCE H'
p260
(dp261
g3
F266.0
sg4
F16586.0
sg5
F46145.0
sg6
I00
sg7
F200000.0
sg8
S'terence.thorn@enron.com'
p262
sg10
F0.0
sg11
Fnan
sg12
Fnan
sg13
Fnan
sg14
Fnan
sg15
F73.0
sg16
Fnan
sg17
F41.0
sg18
F426629.0
sg19
F0.0
sg20
Fnan
sg21
Fnan
sg22
F4817796.0
sg23
F0.0
sg24
F365320.0
sg25
F222093.0
sg26
F0.9241727960254025
sg27
F911453.0
sg28
F4452476.0
sg29
F0.15413533834586465
ssS'FASTOW ANDREW S'
p263
(dp264
g3
Fnan
sg4
Fnan
sg5
F55921.0
sg6
I01
sg7
F1736055.0
sg8
S'andrew.fastow@enron.com'
p265
sg10
Fnan
sg11
F-1386055.0
sg12
F1300000.0
sg13
Fnan
sg14
Fnan
sg15
Fnan
sg16
Fnan
sg17
Fnan
sg18
F277464.0
sg19
Fnan
sg20
Fnan
sg21
F1740698.0
sg22
F1794412.0
sg23
Fnan
sg24
F1794412.0
sg25
F440698.0
sg26
Fnan
sg27
F2424083.0
sg28
Fnan
sg29
Fnan
ssS'FOY JOE'
p266
(dp267
g3
F57.0
sg4
F181755.0
sg5
Fnan
sg6
I00
sg7
Fnan
sg8
S'tracy.foy@enron.com'
p268
sg10
F0.0
sg11
Fnan
sg12
Fnan
sg13
Fnan
sg14
Fnan
sg15
F2.0
sg16
Fnan
sg17
F13.0
sg18
Fnan
sg19
F0.0
sg20
Fnan
sg21
Fnan
sg22
F343434.0
sg23
F0.0
sg24
Fnan
sg25
Fnan
sg26
F1.0
sg27
F181755.0
sg28
F343434.0
sg29
F0.22807017543859648
ssS'CALGER CHRISTOPHER F'
p269
(dp270
g3
F2598.0
sg4
Fnan
sg5
F35818.0
sg6
I01
sg7
F375304.0
sg8
S'christopher.calger@enron.com'
p271
sg10
F199.0
sg11
F-262500.0
sg12
F1250000.0
sg13
F0.12562814070351758
sg14
Fnan
sg15
F2188.0
sg16
Fnan
sg17
F144.0
sg18
F486.0
sg19
F-174.0
sg20
Fnan
sg21
F1490189.0
sg22
F126027.0
sg23
F25.0
sg24
F126027.0
sg25
F240189.0
sg26
Fnan
sg27
F1639297.0
sg28
Fnan
sg29
F0.05542725173210162
ssS'RICE KENNETH D'
p272
(dp273
g3
F905.0
sg4
Fnan
sg5
F46950.0
sg6
I01
sg7
F1617011.0
sg8
S'ken.rice@enron.com'
p274
sg10
F42.0
sg11
F-3504386.0
sg12
F1750000.0
sg13
F0.09523809523809523
sg14
Fnan
sg15
F864.0
sg16
Fnan
sg17
F18.0
sg18
F174839.0
sg19
F-38.0
sg20
Fnan
sg21
F2170636.0
sg22
F22542539.0
sg23
F4.0
sg24
F2748364.0
sg25
F420636.0
sg26
F0.8780809916753388
sg27
F505050.0
sg28
F19794175.0
sg29
F0.019889502762430938
ssS'KAMINSKI WINCENTY J'
p275
(dp276
g3
F4607.0
sg4
Fnan
sg5
F83585.0
sg6
I00
sg7
F323466.0
sg8
S'vince.kaminski@enron.com'
p277
sg10
F41.0
sg11
Fnan
sg12
F400000.0
sg13
F4.170731707317073
sg14
Fnan
sg15
F583.0
sg16
Fnan
sg17
F14368.0
sg18
F4669.0
sg19
F130.0
sg20
Fnan
sg21
F675101.0
sg22
F976037.0
sg23
F171.0
sg24
F126027.0
sg25
F275101.0
sg26
F0.8708788703706929
sg27
F1086821.0
sg28
F850010.0
sg29
F3.1187323637942264
ssS'COX DAVID'
p278
(dp279
g3
F102.0
sg4
Fnan
sg5
F27861.0
sg6
I00
sg7
Fnan
sg8
S'chip.cox@enron.com'
p280
sg10
F0.0
sg11
F-41250.0
sg12
F800000.0
sg13
F19.227272727272727
sg14
Fnan
sg15
F71.0
sg16
Fnan
sg17
F33.0
sg18
F494.0
sg19
F4.0
sg20
Fnan
sg21
F1114288.0
sg22
F495633.0
sg23
F4.0
sg24
F378082.0
sg25
F314288.0
sg26
F0.23717347311417925
sg27
F1101393.0
sg28
F117551.0
sg29
F0.3235294117647059
ssS'OVERDYKE JR JERE C'
p281
(dp282
g3
Fnan
sg4
Fnan
sg5
F18834.0
sg6
I00
sg7
F135836.0
sg8
S'jere.overdyke@enron.com'
p283
sg10
Fnan
sg11
Fnan
sg12
Fnan
sg13
Fnan
sg14
Fnan
sg15
Fnan
sg16
Fnan
sg17
Fnan
sg18
F176.0
sg19
Fnan
sg20
Fnan
sg21
Fnan
sg22
F7307594.0
sg23
Fnan
sg24
F2041016.0
sg25
F94941.0
sg26
F0.7206993163550137
sg27
F249787.0
sg28
F5266578.0
sg29
Fnan
ssS'PEREIRA PAULO V. FERRAZ'
p284
(dp285
g3
Fnan
sg4
Fnan
sg5
F27942.0
sg6
I00
sg7
Fnan
sg8
g32
sg10
Fnan
sg11
F-101250.0
sg12
Fnan
sg13
Fnan
sg14
Fnan
sg15
Fnan
sg16
Fnan
sg17
Fnan
sg18
Fnan
sg19
Fnan
sg20
F101250.0
sg21
Fnan
sg22
Fnan
sg23
Fnan
sg24
Fnan
sg25
Fnan
sg26
Fnan
sg27
F27942.0
sg28
Fnan
sg29
Fnan
ssS'STABLER FRANK'
p286
(dp287
g3
Fnan
sg4
Fnan
sg5
F16514.0
sg6
I00
sg7
Fnan
sg8
S'frank.stabler@enron.com'
p288
sg10
Fnan
sg11
Fnan
sg12
F500000.0
sg13
Fnan
sg14
Fnan
sg15
Fnan
sg16
Fnan
sg17
Fnan
sg18
F356071.0
sg19
Fnan
sg20
Fnan
sg21
F739502.0
sg22
F511734.0
sg23
Fnan
sg24
F511734.0
sg25
F239502.0
sg26
Fnan
sg27
F1112087.0
sg28
Fnan
sg29
Fnan
ssS'SKILLING JEFFREY K'
p289
(dp290
g3
F3627.0
sg4
Fnan
sg5
F29336.0
sg6
I01
sg7
F1920000.0
sg8
S'jeff.skilling@enron.com'
p291
sg10
F88.0
sg11
Fnan
sg12
F5600000.0
sg13
F0.3409090909090909
sg14
Fnan
sg15
F2042.0
sg16
Fnan
sg17
F108.0
sg18
F22122.0
sg19
F-58.0
sg20
Fnan
sg21
F6711258.0
sg22
F26093672.0
sg23
F30.0
sg24
F6843672.0
sg25
F1111258.0
sg26
F0.7377267561269261
sg27
F8682716.0
sg28
F19250000.0
sg29
F0.02977667493796526
ssS'BLAKE JR. NORMAN P'
p292
(dp293
g3
Fnan
sg4
Fnan
sg5
F1279.0
sg6
I00
sg7
Fnan
sg8
g32
sg10
Fnan
sg11
F-113784.0
sg12
Fnan
sg13
Fnan
sg14
Fnan
sg15
Fnan
sg16
Fnan
sg17
Fnan
sg18
Fnan
sg19
Fnan
sg20
F113784.0
sg21
Fnan
sg22
Fnan
sg23
Fnan
sg24
Fnan
sg25
Fnan
sg26
Fnan
sg27
F1279.0
sg28
Fnan
sg29
Fnan
ssS'SHERRICK JEFFREY B'
p294
(dp295
g3
F613.0
sg4
Fnan
sg5
Fnan
sg6
I00
sg7
Fnan
sg8
S'jeffrey.sherrick@enron.com'
p296
sg10
F39.0
sg11
Fnan
sg12
Fnan
sg13
F0.46153846153846156
sg14
Fnan
sg15
F583.0
sg16
Fnan
sg17
F25.0
sg18
Fnan
sg19
F-21.0
sg20
Fnan
sg21
Fnan
sg22
F1832468.0
sg23
F18.0
sg24
F405999.0
sg25
Fnan
sg26
F0.7784414243522942
sg27
Fnan
sg28
F1426469.0
sg29
F0.040783034257748776
ssS'PRENTICE JAMES'
p297
(dp298
g3
Fnan
sg4
F564348.0
sg5
Fnan
sg6
I00
sg7
Fnan
sg8
S'james.prentice@enron.com'
p299
sg10
Fnan
sg11
Fnan
sg12
Fnan
sg13
Fnan
sg14
Fnan
sg15
Fnan
sg16
Fnan
sg17
Fnan
sg18
Fnan
sg19
Fnan
sg20
Fnan
sg21
Fnan
sg22
F1095040.0
sg23
Fnan
sg24
F208809.0
sg25
Fnan
sg26
F0.8093138150204559
sg27
F564348.0
sg28
F886231.0
sg29
Fnan
ssS'GRAY RODNEY'
p300
(dp301
g3
Fnan
sg4
F93585.0
sg5
Fnan
sg6
I00
sg7
F365625.0
sg8
g32
sg10
Fnan
sg11
Fnan
sg12
Fnan
sg13
Fnan
sg14
Fnan
sg15
Fnan
sg16
Fnan
sg17
Fnan
sg18
F680833.0
sg19
Fnan
sg20
Fnan
sg21
Fnan
sg22
Fnan
sg23
Fnan
sg24
Fnan
sg25
F6615.0
sg26
Fnan
sg27
F1146658.0
sg28
Fnan
sg29
Fnan
ssS'PICKERING MARK R'
p302
(dp303
g3
F898.0
sg4
Fnan
sg5
F31653.0
sg6
I00
sg7
Fnan
sg8
S'mark.pickering@enron.com'
p304
sg10
F7.0
sg11
Fnan
sg12
F300000.0
sg13
F0.0
sg14
Fnan
sg15
F728.0
sg16
F400000.0
sg17
F67.0
sg18
Fnan
sg19
F-7.0
sg20
Fnan
sg21
F955037.0
sg22
F28798.0
sg23
F0.0
sg24
Fnan
sg25
F655037.0
sg26
F1.0
sg27
F1386690.0
sg28
F28798.0
sg29
F0.07461024498886415
ssS'NOLES JAMES L'
p305
(dp306
g3
Fnan
sg4
F774401.0
sg5
Fnan
sg6
I00
sg7
Fnan
sg8
g32
sg10
Fnan
sg11
Fnan
sg12
Fnan
sg13
Fnan
sg14
F-94556.0
sg15
Fnan
sg16
Fnan
sg17
Fnan
sg18
Fnan
sg19
Fnan
sg20
Fnan
sg21
Fnan
sg22
F368705.0
sg23
Fnan
sg24
F463261.0
sg25
Fnan
sg26
Fnan
sg27
F774401.0
sg28
Fnan
sg29
Fnan
ssS'KEAN STEVEN J'
p307
(dp308
g3
F12754.0
sg4
Fnan
sg5
F41953.0
sg6
I00
sg7
F300000.0
sg8
S'steven.kean@enron.com'
p309
sg10
F140.0
sg11
Fnan
sg12
F1000000.0
sg13
F2.7642857142857142
sg14
Fnan
sg15
F3639.0
sg16
Fnan
sg17
F6759.0
sg18
F1231.0
sg19
F247.0
sg20
Fnan
sg21
F1404338.0
sg22
F6153642.0
sg23
F387.0
sg24
F4131594.0
sg25
F404338.0
sg26
F0.32859370109603386
sg27
F1747522.0
sg28
F2022048.0
sg29
F0.5299513877999059
ssS'FOWLER PEGGY'
p310
(dp311
g3
F517.0
sg4
Fnan
sg5
Fnan
sg6
I00
sg7
Fnan
sg8
S'kulvinder.fowler@enron.com'
p312
sg10
F0.0
sg11
Fnan
sg12
Fnan
sg13
Fnan
sg14
Fnan
sg15
F10.0
sg16
Fnan
sg17
F36.0
sg18
Fnan
sg19
F0.0
sg20
Fnan
sg21
Fnan
sg22
F1884748.0
sg23
F0.0
sg24
F560170.0
sg25
Fnan
sg26
F0.7027878528057863
sg27
Fnan
sg28
F1324578.0
sg29
F0.06963249516441006
ssS'WASAFF GEORGE'
p313
(dp314
g3
F400.0
sg4
F831299.0
sg5
Fnan
sg6
I00
sg7
F200000.0
sg8
S'george.wasaff@enron.com'
p315
sg10
F22.0
sg11
F-583325.0
sg12
F325000.0
sg13
F0.3181818181818182
sg14
Fnan
sg15
F337.0
sg16
Fnan
sg17
F30.0
sg18
F1425.0
sg19
F-15.0
sg20
Fnan
sg21
F584996.0
sg22
F2056427.0
sg23
F7.0
sg24
F388167.0
sg25
F259996.0
sg26
F0.8112420231790382
sg27
F1034395.0
sg28
F1668260.0
sg29
F0.075
ssS'WHITE JR THOMAS E'
p316
(dp317
g3
Fnan
sg4
Fnan
sg5
F81353.0
sg6
I00
sg7
Fnan
sg8
S'thomas.white@enron.com'
p318
sg10
Fnan
sg11
Fnan
sg12
F450000.0
sg13
Fnan
sg14
Fnan
sg15
Fnan
sg16
Fnan
sg17
Fnan
sg18
F1085463.0
sg19
Fnan
sg20
Fnan
sg21
F767543.0
sg22
F15144123.0
sg23
Fnan
sg24
F13847074.0
sg25
F317543.0
sg26
F0.08564701963923563
sg27
F1934359.0
sg28
F1297049.0
sg29
Fnan
ssS'CHRISTODOULOU DIOMEDES'
p319
(dp320
g3
Fnan
sg4
Fnan
sg5
Fnan
sg6
I00
sg7
Fnan
sg8
S'diomedes.christodoulou@enron.com'
p321
sg10
Fnan
sg11
Fnan
sg12
Fnan
sg13
Fnan
sg14
Fnan
sg15
Fnan
sg16
Fnan
sg17
Fnan
sg18
Fnan
sg19
Fnan
sg20
Fnan
sg21
Fnan
sg22
F6077885.0
sg23
Fnan
sg24
F950730.0
sg25
Fnan
sg26
F0.8435755201027989
sg27
Fnan
sg28
F5127155.0
sg29
Fnan
ssS'ALLEN PHILLIP K'
p322
(dp323
g3
F2902.0
sg4
F2869717.0
sg5
F13868.0
sg6
I00
sg7
F304805.0
sg8
S'phillip.allen@enron.com'
p324
sg10
F47.0
sg11
F-3081055.0
sg12
F4175000.0
sg13
F1.3829787234042554
sg14
F-126027.0
sg15
F1407.0
sg16
Fnan
sg17
F2195.0
sg18
F152.0
sg19
F18.0
sg20
Fnan
sg21
F4376955.0
sg22
F1729541.0
sg23
F65.0
sg24
F126027.0
sg25
F201955.0
sg26
F1.0
sg27
F4484442.0
sg28
F1729541.0
sg29
F0.7563749138525155
ssS'SHARP VICTORIA T'
p325
(dp326
g3
F3136.0
sg4
F187469.0
sg5
F116337.0
sg6
I00
sg7
F422158.0
sg8
S'vicki.sharp@enron.com'
p327
sg10
F24.0
sg11
Fnan
sg12
F600000.0
sg13
F0.25
sg14
Fnan
sg15
F2477.0
sg16
Fnan
sg17
F136.0
sg18
F2401.0
sg19
F-18.0
sg20
Fnan
sg21
F848146.0
sg22
F494136.0
sg23
F6.0
sg24
F213063.0
sg25
F248146.0
sg26
F0.5688170867939191
sg27
F1576511.0
sg28
F281073.0
sg29
F0.04336734693877551
ssS'JAEDICKE ROBERT'
p328
(dp329
g3
Fnan
sg4
Fnan
sg5
Fnan
sg6
I00
sg7
Fnan
sg8
g32
sg10
Fnan
sg11
F-25000.0
sg12
Fnan
sg13
Fnan
sg14
F-44093.0
sg15
Fnan
sg16
Fnan
sg17
Fnan
sg18
Fnan
sg19
Fnan
sg20
F108750.0
sg21
Fnan
sg22
F431750.0
sg23
Fnan
sg24
F44093.0
sg25
Fnan
sg26
F1.0
sg27
F83750.0
sg28
F431750.0
sg29
Fnan
ssS'WINOKUR JR. HERBERT S'
p330
(dp331
g3
Fnan
sg4
Fnan
sg5
F1413.0
sg6
I00
sg7
Fnan
sg8
g32
sg10
Fnan
sg11
F-25000.0
sg12
Fnan
sg13
Fnan
sg14
Fnan
sg15
Fnan
sg16
Fnan
sg17
Fnan
sg18
Fnan
sg19
Fnan
sg20
F108579.0
sg21
Fnan
sg22
Fnan
sg23
Fnan
sg24
Fnan
sg25
Fnan
sg26
Fnan
sg27
F84992.0
sg28
Fnan
sg29
Fnan
ssS'BROWN MICHAEL'
p332
(dp333
g3
F1486.0
sg4
Fnan
sg5
F49288.0
sg6
I00
sg7
Fnan
sg8
S'michael.brown@enron.com'
p334
sg10
F13.0
sg11
Fnan
sg12
Fnan
sg13
F0.07692307692307693
sg14
Fnan
sg15
F761.0
sg16
Fnan
sg17
F41.0
sg18
Fnan
sg19
F-12.0
sg20
Fnan
sg21
Fnan
sg22
Fnan
sg23
F1.0
sg24
Fnan
sg25
Fnan
sg26
Fnan
sg27
F49288.0
sg28
Fnan
sg29
F0.02759084791386272
ssS'BADUM JAMES P'
p335
(dp336
g3
Fnan
sg4
F178980.0
sg5
F3486.0
sg6
I00
sg7
Fnan
sg8
g32
sg10
Fnan
sg11
Fnan
sg12
Fnan
sg13
Fnan
sg14
Fnan
sg15
Fnan
sg16
Fnan
sg17
Fnan
sg18
Fnan
sg19
Fnan
sg20
Fnan
sg21
Fnan
sg22
F257817.0
sg23
Fnan
sg24
Fnan
sg25
Fnan
sg26
F1.0
sg27
F182466.0
sg28
F257817.0
sg29
Fnan
ssS'HUGHES JAMES A'
p337
(dp338
g3
F719.0
sg4
Fnan
sg5
Fnan
sg6
I00
sg7
Fnan
sg8
S'james.hughes@enron.com'
p339
sg10
F35.0
sg11
Fnan
sg12
Fnan
sg13
F0.14285714285714285
sg14
Fnan
sg15
F589.0
sg16
Fnan
sg17
F34.0
sg18
Fnan
sg19
F-30.0
sg20
Fnan
sg21
Fnan
sg22
F1118394.0
sg23
F5.0
sg24
F363428.0
sg25
Fnan
sg26
F0.6750447516706992
sg27
Fnan
sg28
F754966.0
sg29
F0.04728789986091794
ssS'REYNOLDS LAWRENCE'
p340
(dp341
g3
Fnan
sg4
F51365.0
sg5
F8409.0
sg6
I00
sg7
F156250.0
sg8
g32
sg10
Fnan
sg11
F-200000.0
sg12
F100000.0
sg13
Fnan
sg14
F-140264.0
sg15
Fnan
sg16
Fnan
sg17
Fnan
sg18
F202052.0
sg19
Fnan
sg20
Fnan
sg21
F176399.0
sg22
F4221891.0
sg23
Fnan
sg24
F201483.0
sg25
F76399.0
sg26
F0.9854996256416853
sg27
F394475.0
sg28
F4160672.0
sg29
Fnan
ssS'DIMICHELE RICHARD G'
p342
(dp343
g3
Fnan
sg4
Fnan
sg5
F35812.0
sg6
I00
sg7
F694862.0
sg8
S'richard.dimichele@enron.com'
p344
sg10
Fnan
sg11
Fnan
sg12
F1000000.0
sg13
Fnan
sg14
Fnan
sg15
Fnan
sg16
Fnan
sg17
Fnan
sg18
F374689.0
sg19
Fnan
sg20
Fnan
sg21
F1262788.0
sg22
F8317782.0
sg23
Fnan
sg24
F126027.0
sg25
F262788.0
sg26
F0.9848484848484849
sg27
F2368151.0
sg28
F8191755.0
sg29
Fnan
ssS'BHATNAGAR SANJAY'
p345
(dp346
g3
F523.0
sg4
Fnan
sg5
F137864.0
sg6
I00
sg7
Fnan
sg8
S'sanjay.bhatnagar@enron.com'
p347
sg10
F0.0
sg11
Fnan
sg12
Fnan
sg13
F19.227272727272727
sg14
F-2604490.0
sg15
F463.0
sg16
Fnan
sg17
F29.0
sg18
Fnan
sg19
F1.0
sg20
Fnan
sg21
Fnan
sg22
F15456290.0
sg23
F1.0
sg24
F2604490.0
sg25
Fnan
sg26
F1.0
sg27
F137864.0
sg28
F15456290.0
sg29
F0.055449330783938815
ssS'CARTER REBECCA C'
p348
(dp349
g3
F312.0
sg4
Fnan
sg5
Fnan
sg6
I00
sg7
F75000.0
sg8
S'rebecca.carter@enron.com'
p350
sg10
F29.0
sg11
F-159792.0
sg12
F300000.0
sg13
F0.2413793103448276
sg14
F-307301.0
sg15
F196.0
sg16
Fnan
sg17
F15.0
sg18
F540.0
sg19
F-22.0
sg20
Fnan
sg21
F561809.0
sg22
Fnan
sg23
F7.0
sg24
F307301.0
sg25
F261809.0
sg26
Fnan
sg27
F477557.0
sg28
Fnan
sg29
F0.04807692307692308
ssS'BUCHANAN HAROLD G'
p351
(dp352
g3
F1088.0
sg4
Fnan
sg5
F600.0
sg6
I00
sg7
F304805.0
sg8
S'john.buchanan@enron.com'
p353
sg10
F0.0
sg11
Fnan
sg12
F500000.0
sg13
Fnan
sg14
Fnan
sg15
F23.0
sg16
Fnan
sg17
F125.0
sg18
F1215.0
sg19
F0.0
sg20
Fnan
sg21
F748017.0
sg22
F1014505.0
sg23
F0.0
sg24
F189041.0
sg25
F248017.0
sg26
F0.8136618350821336
sg27
F1054637.0
sg28
F825464.0
sg29
F0.11488970588235294
ssS'YEAP SOON'
p354
(dp355
g3
Fnan
sg4
Fnan
sg5
F55097.0
sg6
I00
sg7
Fnan
sg8
g32
sg10
Fnan
sg11
Fnan
sg12
Fnan
sg13
Fnan
sg14
Fnan
sg15
Fnan
sg16
Fnan
sg17
Fnan
sg18
Fnan
sg19
Fnan
sg20
Fnan
sg21
Fnan
sg22
F192758.0
sg23
Fnan
sg24
Fnan
sg25
Fnan
sg26
F1.0
sg27
F55097.0
sg28
F192758.0
sg29
Fnan
ssS'MURRAY JULIA H'
p356
(dp357
g3
F2192.0
sg4
Fnan
sg5
F57580.0
sg6
I00
sg7
F125000.0
sg8
S'julia.murray@enron.com'
p358
sg10
F11.0
sg11
Fnan
sg12
F400000.0
sg13
F0.18181818181818182
sg14
Fnan
sg15
F395.0
sg16
Fnan
sg17
F45.0
sg18
F330.0
sg19
F-9.0
sg20
Fnan
sg21
F629284.0
sg22
F597461.0
sg23
F2.0
sg24
F196983.0
sg25
F229284.0
sg26
F0.6702998187329382
sg27
F812194.0
sg28
F400478.0
sg29
F0.02052919708029197
ssS'GARLAND C KEVIN'
p359
(dp360
g3
F209.0
sg4
Fnan
sg5
F48405.0
sg6
I00
sg7
F375304.0
sg8
S'kevin.garland@enron.com'
p361
sg10
F10.0
sg11
Fnan
sg12
F850000.0
sg13
F2.7
sg14
Fnan
sg15
F178.0
sg16
Fnan
sg17
F44.0
sg18
F60814.0
sg19
F17.0
sg20
Fnan
sg21
F1081946.0
sg22
F896153.0
sg23
F27.0
sg24
F259907.0
sg25
F231946.0
sg26
F0.7099747476156415
sg27
F1566469.0
sg28
F636246.0
sg29
F0.21052631578947367
ssS'DODSON KEITH'
p362
(dp363
g3
F176.0
sg4
Fnan
sg5
F28164.0
sg6
I00
sg7
Fnan
sg8
S'keith.dodson@enron.com'
p364
sg10
F10.0
sg11
Fnan
sg12
F70000.0
sg13
F0.3
sg14
Fnan
sg15
F114.0
sg16
Fnan
sg17
F14.0
sg18
F774.0
sg19
F-7.0
sg20
Fnan
sg21
F291003.0
sg22
Fnan
sg23
F3.0
sg24
Fnan
sg25
F221003.0
sg26
Fnan
sg27
F319941.0
sg28
Fnan
sg29
F0.07954545454545454
ssS'YEAGER F SCOTT'
p365
(dp366
g3
Fnan
sg4
Fnan
sg5
F53947.0
sg6
I01
sg7
Fnan
sg8
S'scott.yeager@enron.com'
p367
sg10
Fnan
sg11
Fnan
sg12
Fnan
sg13
Fnan
sg14
Fnan
sg15
Fnan
sg16
Fnan
sg17
Fnan
sg18
F147950.0
sg19
Fnan
sg20
Fnan
sg21
Fnan
sg22
F11884758.0
sg23
Fnan
sg24
F3576206.0
sg25
F158403.0
sg26
F0.6990930736662875
sg27
F360300.0
sg28
F8308552.0
sg29
Fnan
ssS'HIRKO JOSEPH'
p368
(dp369
g3
Fnan
sg4
F10259.0
sg5
F77978.0
sg6
I01
sg7
Fnan
sg8
S'joe.hirko@enron.com'
p370
sg10
Fnan
sg11
Fnan
sg12
Fnan
sg13
Fnan
sg14
Fnan
sg15
Fnan
sg16
Fnan
sg17
Fnan
sg18
F2856.0
sg19
Fnan
sg20
Fnan
sg21
Fnan
sg22
F30766064.0
sg23
Fnan
sg24
Fnan
sg25
Fnan
sg26
F1.0
sg27
F91093.0
sg28
F30766064.0
sg29
Fnan
ssS'DIETRICH JANET R'
p371
(dp372
g3
F2572.0
sg4
Fnan
sg5
F3475.0
sg6
I00
sg7
F556416.0
sg8
S'janet.dietrich@enron.com'
p373
sg10
F305.0
sg11
Fnan
sg12
F600000.0
sg13
F0.04590163934426229
sg14
Fnan
sg15
F1902.0
sg16
Fnan
sg17
F63.0
sg18
F473.0
sg19
F-291.0
sg20
Fnan
sg21
F850100.0
sg22
F1865087.0
sg23
F14.0
sg24
F315068.0
sg25
F250100.0
sg26
F0.8310706149364614
sg27
F1410464.0
sg28
F1550019.0
sg29
F0.024494556765163298
ssS'DERRICK JR. JAMES V'
p374
(dp375
g3
F2181.0
sg4
Fnan
sg5
F51124.0
sg6
I00
sg7
F484000.0
sg8
S'james.derrick@enron.com'
p376
sg10
F64.0
sg11
F-1284000.0
sg12
F800000.0
sg13
F0.3125
sg14
F-1787380.0
sg15
F1401.0
sg16
Fnan
sg17
F909.0
sg18
F7482.0
sg19
F-44.0
sg20
Fnan
sg21
F1292375.0
sg22
F8831913.0
sg23
F20.0
sg24
F1787380.0
sg25
F492375.0
sg26
F1.0
sg27
F550981.0
sg28
F8831913.0
sg29
F0.4167812929848693
ssS'FREVERT MARK A'
p377
(dp378
g3
F3275.0
sg4
F6426990.0
sg5
F86987.0
sg6
I00
sg7
F1617011.0
sg8
S'mark.frevert@enron.com'
p379
sg10
F242.0
sg11
F-3367011.0
sg12
F2000000.0
sg13
F0.024793388429752067
sg14
Fnan
sg15
F2979.0
sg16
F2000000.0
sg17
F21.0
sg18
F7427621.0
sg19
F-236.0
sg20
Fnan
sg21
F3060932.0
sg22
F14622185.0
sg23
F6.0
sg24
F4188667.0
sg25
F1060932.0
sg26
F0.713540281428528
sg27
F17252530.0
sg28
F10433518.0
sg29
F0.006412213740458015
ssS'PAI LOU L'
p380
(dp381
g3
Fnan
sg4
Fnan
sg5
F32047.0
sg6
I00
sg7
Fnan
sg8
S'lou.pai@enron.com'
p382
sg10
Fnan
sg11
Fnan
sg12
F1000000.0
sg13
Fnan
sg14
Fnan
sg15
Fnan
sg16
Fnan
sg17
Fnan
sg18
F1829457.0
sg19
Fnan
sg20
Fnan
sg21
F1261879.0
sg22
F23817930.0
sg23
Fnan
sg24
F8453763.0
sg25
F261879.0
sg26
F0.6450672665508715
sg27
F3123383.0
sg28
F15364167.0
sg29
Fnan
ssS'BAY FRANKLIN R'
p383
(dp384
g3
Fnan
sg4
F260455.0
sg5
F129142.0
sg6
I00
sg7
Fnan
sg8
S'frank.bay@enron.com'
p385
sg10
Fnan
sg11
F-201641.0
sg12
F400000.0
sg13
Fnan
sg14
F-82782.0
sg15
Fnan
sg16
Fnan
sg17
Fnan
sg18
F69.0
sg19
Fnan
sg20
Fnan
sg21
F639671.0
sg22
F63014.0
sg23
Fnan
sg24
F145796.0
sg25
F239671.0
sg26
Fnan
sg27
F827696.0
sg28
Fnan
sg29
Fnan
ssS'HAYSLETT RODERICK J'
p386
(dp387
g3
F2649.0
sg4
Fnan
sg5
Fnan
sg6
I00
sg7
Fnan
sg8
S'rod.hayslett@enron.com'
p388
sg10
F35.0
sg11
Fnan
sg12
Fnan
sg13
F1.0857142857142856
sg14
Fnan
sg15
F571.0
sg16
Fnan
sg17
F1061.0
sg18
Fnan
sg19
F3.0
sg20
Fnan
sg21
Fnan
sg22
F346663.0
sg23
F38.0
sg24
F346663.0
sg25
Fnan
sg26
Fnan
sg27
Fnan
sg28
Fnan
sg29
F0.4005285013212533
ssS'FUGH JOHN L'
p389
(dp390
g3
Fnan
sg4
F50591.0
sg5
Fnan
sg6
I00
sg7
Fnan
sg8
g32
sg10
Fnan
sg11
Fnan
sg12
Fnan
sg13
Fnan
sg14
Fnan
sg15
Fnan
sg16
Fnan
sg17
Fnan
sg18
Fnan
sg19
Fnan
sg20
Fnan
sg21
Fnan
sg22
F176378.0
sg23
Fnan
sg24
Fnan
sg25
Fnan
sg26
F1.0
sg27
F50591.0
sg28
F176378.0
sg29
Fnan
ssS'FALLON JAMES B'
p391
(dp392
g3
F1755.0
sg4
Fnan
sg5
F95924.0
sg6
I00
sg7
F374347.0
sg8
S'jim.fallon@enron.com'
p393
sg10
F42.0
sg11
Fnan
sg12
F2500000.0
sg13
F0.8809523809523809
sg14
Fnan
sg15
F1604.0
sg16
Fnan
sg17
F75.0
sg18
F401481.0
sg19
F-5.0
sg20
Fnan
sg21
F2804588.0
sg22
F2332399.0
sg23
F37.0
sg24
F1392142.0
sg25
F304588.0
sg26
F0.40312870996771993
sg27
F3676340.0
sg28
F940257.0
sg29
F0.042735042735042736
ssS'KOENIG MARK E'
p394
(dp395
g3
F2374.0
sg4
Fnan
sg5
F127017.0
sg6
I01
sg7
F300000.0
sg8
S'mark.koenig@enron.com'
p396
sg10
F53.0
sg11
Fnan
sg12
F700000.0
sg13
F0.2830188679245283
sg14
Fnan
sg15
F2271.0
sg16
Fnan
sg17
F61.0
sg18
F150458.0
sg19
F-38.0
sg20
Fnan
sg21
F1009946.0
sg22
F1920055.0
sg23
F15.0
sg24
F1248318.0
sg25
F309946.0
sg26
F0.3498529990026327
sg27
F1587421.0
sg28
F671737.0
sg29
F0.025695029486099412
ssS'SAVAGE FRANK'
p397
(dp398
g3
Fnan
sg4
Fnan
sg5
Fnan
sg6
I00
sg7
Fnan
sg8
g32
sg10
Fnan
sg11
F-121284.0
sg12
Fnan
sg13
Fnan
sg14
Fnan
sg15
Fnan
sg16
Fnan
sg17
Fnan
sg18
Fnan
sg19
Fnan
sg20
F125034.0
sg21
Fnan
sg22
Fnan
sg23
Fnan
sg24
Fnan
sg25
Fnan
sg26
Fnan
sg27
F3750.0
sg28
Fnan
sg29
Fnan
ssS'IZZO LAWRENCE L'
p399
(dp400
g3
F496.0
sg4
Fnan
sg5
F28093.0
sg6
I00
sg7
F312500.0
sg8
S'larry.izzo@enron.com'
p401
sg10
F28.0
sg11
Fnan
sg12
Fnan
sg13
F0.17857142857142858
sg14
Fnan
sg15
F437.0
sg16
Fnan
sg17
F19.0
sg18
F1553729.0
sg19
F-23.0
sg20
Fnan
sg21
Fnan
sg22
F5819980.0
sg23
F5.0
sg24
F3654808.0
sg25
F85274.0
sg26
F0.3720239588452194
sg27
F1979596.0
sg28
F2165172.0
sg29
F0.038306451612903226
ssS'TILNEY ELIZABETH A'
p402
(dp403
g3
F460.0
sg4
Fnan
sg5
Fnan
sg6
I00
sg7
F275000.0
sg8
S'elizabeth.tilney@enron.com'
p404
sg10
F10.0
sg11
F-575000.0
sg12
F300000.0
sg13
F1.1
sg14
Fnan
sg15
F379.0
sg16
Fnan
sg17
F19.0
sg18
F152055.0
sg19
F1.0
sg20
Fnan
sg21
F547338.0
sg22
F1168042.0
sg23
F11.0
sg24
F576792.0
sg25
F247338.0
sg26
F0.5061889897794771
sg27
F399393.0
sg28
F591250.0
sg29
F0.041304347826086954
ssS'MARTIN AMANDA K'
p405
(dp406
g3
F1522.0
sg4
F85430.0
sg5
F8211.0
sg6
I00
sg7
F5145434.0
sg8
S'a..martin@enron.com'
p407
sg10
F8.0
sg11
Fnan
sg12
Fnan
sg13
F0.0
sg14
Fnan
sg15
F477.0
sg16
Fnan
sg17
F230.0
sg18
F2818454.0
sg19
F-8.0
sg20
Fnan
sg21
Fnan
sg22
F2070306.0
sg23
F0.0
sg24
Fnan
sg25
F349487.0
sg26
F1.0
sg27
F8407016.0
sg28
F2070306.0
sg29
F0.15111695137976347
ssS'BUY RICHARD B'
p408
(dp409
g3
F3523.0
sg4
F649584.0
sg5
Fnan
sg6
I00
sg7
F769862.0
sg8
S'rick.buy@enron.com'
p410
sg10
F156.0
sg11
F-694862.0
sg12
F900000.0
sg13
F0.4551282051282051
sg14
Fnan
sg15
F2333.0
sg16
Fnan
sg17
F1053.0
sg18
F400572.0
sg19
F-85.0
sg20
Fnan
sg21
F1230546.0
sg22
F3444470.0
sg23
F71.0
sg24
F901657.0
sg25
F330546.0
sg26
F0.7382305550636237
sg27
F2355702.0
sg28
F2542813.0
sg29
F0.2988929889298893
ssS'GRAMM WENDY L'
p411
(dp412
g3
Fnan
sg4
Fnan
sg5
Fnan
sg6
I00
sg7
Fnan
sg8
g32
sg10
Fnan
sg11
Fnan
sg12
Fnan
sg13
Fnan
sg14
Fnan
sg15
Fnan
sg16
Fnan
sg17
Fnan
sg18
Fnan
sg19
Fnan
sg20
F119292.0
sg21
Fnan
sg22
Fnan
sg23
Fnan
sg24
Fnan
sg25
Fnan
sg26
Fnan
sg27
F119292.0
sg28
Fnan
sg29
Fnan
ssS'CAUSEY RICHARD A'
p413
(dp414
g3
F1892.0
sg4
Fnan
sg5
F30674.0
sg6
I01
sg7
F350000.0
sg8
S'richard.causey@enron.com'
p415
sg10
F58.0
sg11
F-235000.0
sg12
F1000000.0
sg13
F0.20689655172413793
sg14
Fnan
sg15
F1585.0
sg16
Fnan
sg17
F49.0
sg18
F307895.0
sg19
F-46.0
sg20
Fnan
sg21
F1415189.0
sg22
F2502063.0
sg23
F12.0
sg24
F2502063.0
sg25
F415189.0
sg26
Fnan
sg27
F1868758.0
sg28
Fnan
sg29
F0.025898520084566595
ssS'TAYLOR MITCHELL S'
p416
(dp417
g3
F533.0
sg4
F227449.0
sg5
Fnan
sg6
I00
sg7
Fnan
sg8
S'mitchell.taylor@enron.com'
p418
sg10
F0.0
sg11
Fnan
sg12
F600000.0
sg13
Fnan
sg14
Fnan
sg15
F300.0
sg16
Fnan
sg17
F29.0
sg18
Fnan
sg19
F0.0
sg20
Fnan
sg21
F865214.0
sg22
F3745048.0
sg23
F0.0
sg24
F563798.0
sg25
F265214.0
sg26
F0.849455067064561
sg27
F1092663.0
sg28
F3181250.0
sg29
F0.054409005628517824
ssS'DONAHUE JR JEFFREY M'
p419
(dp420
g3
F865.0
sg4
Fnan
sg5
F96268.0
sg6
I00
sg7
Fnan
sg8
S'jeff.donahue@enron.com'
p421
sg10
F188.0
sg11
F-300000.0
sg12
F800000.0
sg13
F0.05851063829787234
sg14
Fnan
sg15
F772.0
sg16
Fnan
sg17
F22.0
sg18
F891.0
sg19
F-177.0
sg20
Fnan
sg21
F1078601.0
sg22
F1080988.0
sg23
F11.0
sg24
F315068.0
sg25
F278601.0
sg26
F0.7085370050361336
sg27
F875760.0
sg28
F765920.0
sg29
F0.025433526011560695
ssS'GLISAN JR BEN F'
p422
(dp423
g3
F873.0
sg4
Fnan
sg5
F125978.0
sg6
I01
sg7
F71023.0
sg8
S'ben.glisan@enron.com'
p424
sg10
F52.0
sg11
Fnan
sg12
F600000.0
sg13
F0.11538461538461539
sg14
Fnan
sg15
F874.0
sg16
Fnan
sg17
F16.0
sg18
F200308.0
sg19
F-46.0
sg20
Fnan
sg21
F874975.0
sg22
F778546.0
sg23
F6.0
sg24
F393818.0
sg25
F274975.0
sg26
F0.49416219465516487
sg27
F1272284.0
sg28
F384728.0
sg29
F0.018327605956471937
ss.