(lp0
S'poi'
p1
aS'exercised_stock_options'
p2
aS'total_stock_value'
p3
aS'take_home'
p4
aS'salary'
p5
aS'deferred_income'
p6
aS'total_payments'
p7
aS'long_term_incentive'
p8
aS'restricted_stock'
p9
aS'shared_receipt_with_poi'
p10
aS'from_poi_to_this_person'
p11
aS'from_this_person_to_poi'
p12
a.